; Function Attrs: mustprogress uwtable
define noundef i32 @casadi_c_eval_id(i32 noundef %0, ptr noundef %1, ptr noundef %2, ptr noundef %3, ptr noundef %4, i32 noundef %5) local_unnamed_addr #5 personality ptr @__gxx_personality_v0 {
  %7 = tail call noundef i32 @_Z11sanitize_idi(i32 noundef %0)
  %.not = icmp eq i32 %7, 0
  br i1 %.not, label %8, label %42

8:                                                ; preds = %6
  %9 = sext i32 %0 to i64
  %10 = load ptr, ptr getelementptr inbounds nuw (i8, ptr @_ZL25casadi_c_loaded_functions, i64 8), align 8, !tbaa !9
  %11 = load ptr, ptr @_ZL25casadi_c_loaded_functions, align 8, !tbaa !3
  %12 = ptrtoint ptr %10 to i64
  %13 = ptrtoint ptr %11 to i64
  %14 = sub i64 %12, %13
  %15 = ashr exact i64 %14, 3
  %.not.i.i = icmp ugt i64 %15, %9
  br i1 %.not.i.i, label %17, label %16

16:                                               ; preds = %8
  invoke void (ptr, ...) @_ZSt24__throw_out_of_range_fmtPKcz(ptr noundef nonnull @.str.20, i64 noundef %9, i64 noundef %15) #25
          to label %.noexc unwind label %20

.noexc:                                           ; preds = %16
  unreachable

17:                                               ; preds = %8
  %18 = getelementptr inbounds nuw %"class.casadi::Function", ptr %11, i64 %9
  %19 = invoke noundef i32 @_ZNK6casadi8FunctionclEPPKdPPdPxS4_i(ptr noundef nonnull align 8 dereferenceable(8) %18, ptr noundef %1, ptr noundef %2, ptr noundef %3, ptr noundef %4, i32 noundef %5)
          to label %42 unwind label %20

20:                                               ; preds = %16, %17
  %21 = landingpad { ptr, i32 }
          catch ptr @_ZTISt9exception
          catch ptr null
  %22 = extractvalue { ptr, i32 } %21, 0
  %23 = extractvalue { ptr, i32 } %21, 1
  %24 = tail call i32 @llvm.eh.typeid.for.p0(ptr nonnull @_ZTISt9exception) #23
  %25 = icmp eq i32 %23, %24
  %26 = tail call ptr @__cxa_begin_catch(ptr %22) #23
  br i1 %25, label %27, label %35

27:                                               ; preds = %20
  %28 = load ptr, ptr %26, align 8, !tbaa !32
  %29 = getelementptr inbounds nuw i8, ptr %28, i64 16
  %30 = load ptr, ptr %29, align 8
  %31 = tail call noundef ptr %30(ptr noundef nonnull align 8 dereferenceable(8) %26) #23
  %32 = invoke noundef nonnull align 8 dereferenceable(8) ptr @_ZStlsISt11char_traitsIcEERSt13basic_ostreamIcT_ES5_PKc(ptr noundef nonnull align 8 dereferenceable(8) @_ZSt4cerr, ptr noundef %31)
          to label %33 unwind label %40

33:                                               ; preds = %27
  %34 = invoke noundef nonnull align 8 dereferenceable(8) ptr @_ZSt4endlIcSt11char_traitsIcEERSt13basic_ostreamIT_T0_ES6_(ptr noundef nonnull align 8 dereferenceable(8) %32)
          to label %.sink.split unwind label %40

35:                                               ; preds = %20
  %36 = invoke noundef nonnull align 8 dereferenceable(8) ptr @_ZSt16__ostream_insertIcSt11char_traitsIcEERSt13basic_ostreamIT_T0_ES6_PKS3_l(ptr noundef nonnull align 8 dereferenceable(8) @_ZSt4cerr, ptr noundef nonnull @.str.8, i64 noundef 18)
          to label %_ZStlsISt11char_traitsIcEERSt13basic_ostreamIcT_ES5_PKc.exit unwind label %38

_ZStlsISt11char_traitsIcEERSt13basic_ostreamIcT_ES5_PKc.exit: ; preds = %35
  %37 = invoke noundef nonnull align 8 dereferenceable(8) ptr @_ZSt4endlIcSt11char_traitsIcEERSt13basic_ostreamIT_T0_ES6_(ptr noundef nonnull align 8 dereferenceable(8) @_ZSt4cerr)
          to label %.sink.split unwind label %38

38:                                               ; preds = %_ZStlsISt11char_traitsIcEERSt13basic_ostreamIcT_ES5_PKc.exit, %35
  %39 = landingpad { ptr, i32 }
          cleanup
  invoke void @__cxa_end_catch()
          to label %43 unwind label %44

40:                                               ; preds = %33, %27
  %41 = landingpad { ptr, i32 }
          cleanup
  invoke void @__cxa_end_catch()
          to label %43 unwind label %44

.sink.split:                                      ; preds = %_ZStlsISt11char_traitsIcEERSt13basic_ostreamIcT_ES5_PKc.exit, %33
  %.0.ph = phi i32 [ -2, %33 ], [ -3, %_ZStlsISt11char_traitsIcEERSt13basic_ostreamIcT_ES5_PKc.exit ]
  tail call void @__cxa_end_catch()
  br label %42

42:                                               ; preds = %.sink.split, %17, %6
  %.0 = phi i32 [ -1, %6 ], [ %19, %17 ], [ %.0.ph, %.sink.split ]
  ret i32 %.0

43:                                               ; preds = %40, %38
  %.pn = phi { ptr, i32 } [ %39, %38 ], [ %41, %40 ]
  resume { ptr, i32 } %.pn

44:                                               ; preds = %40, %38
  %45 = landingpad { ptr, i32 }
          catch ptr null
  %46 = extractvalue { ptr, i32 } %45, 0
  tail call void @__clang_call_terminate(ptr %46) #26
  unreachable
}